target datalayout = "e-m:e-p270:32:32-p271:32:32-p272:64:64-i64:64-i128:128-f80:128-n8:16:32:64-S128"
target triple = "x86_64-pc-linux-gnu"

%struct.wolfSSL_RefWithMutex = type { %union.pthread_mutex_t, i32 }
%union.pthread_mutex_t = type { %struct.__pthread_mutex_s }
%struct.__pthread_mutex_s = type { i32, i32, i32, i32, i32, i16, i16, %struct.__pthread_internal_list }
%struct.__pthread_internal_list = type { ptr, ptr }

; Function Attrs: nounwind uwtable
define i32 @wc_UnLockMutex(ptr noundef %0) #0 {
  %2 = alloca i32, align 4
  %3 = alloca ptr, align 8
  store ptr %0, ptr %3, align 8, !tbaa !14
  %4 = load ptr, ptr %3, align 8, !tbaa !14
  %5 = call i32 @pthread_mutex_unlock(ptr noundef %4) #7
  %6 = icmp eq i32 %5, 0
  br i1 %6, label %7, label %8

7:                                                ; preds = %1
  store i32 0, ptr %2, align 4
  br label %9

8:                                                ; preds = %1
  store i32 -106, ptr %2, align 4
  br label %9

9:                                                ; preds = %8, %7
  %10 = load i32, ptr %2, align 4
  ret i32 %10
}

; Function Attrs: nounwind uwtable
define i32 @wc_LockMutex(ptr noundef %0) #0 {
  %2 = alloca i32, align 4
  %3 = alloca ptr, align 8
  store ptr %0, ptr %3, align 8, !tbaa !14
  %4 = load ptr, ptr %3, align 8, !tbaa !14
  %5 = call i32 @pthread_mutex_lock(ptr noundef %4) #7
  %6 = icmp eq i32 %5, 0
  br i1 %6, label %7, label %8

7:                                                ; preds = %1
  store i32 0, ptr %2, align 4
  br label %9

8:                                                ; preds = %1
  store i32 -106, ptr %2, align 4
  br label %9

9:                                                ; preds = %8, %7
  %10 = load i32, ptr %2, align 4
  ret i32 %10
}

; Function Attrs: nounwind uwtable
define void @wolfSSL_RefWithMutexInc(ptr noundef %0, ptr noundef %1) #0 {
  %3 = alloca ptr, align 8
  %4 = alloca ptr, align 8
  %5 = alloca i32, align 4
  store ptr %0, ptr %3, align 8, !tbaa !40
  store ptr %1, ptr %4, align 8, !tbaa !42
  call void @llvm.lifetime.start.p0(i64 4, ptr %5) #7
  %6 = load ptr, ptr %3, align 8, !tbaa !40
  %7 = getelementptr inbounds nuw %struct.wolfSSL_RefWithMutex, ptr %6, i32 0, i32 0
  %8 = call i32 @wc_LockMutex(ptr noundef %7)
  store i32 %8, ptr %5, align 4, !tbaa !3
  %9 = load i32, ptr %5, align 4, !tbaa !3
  %10 = icmp ne i32 %9, 0
  br i1 %10, label %11, label %15

11:                                               ; preds = %2
  br label %12

12:                                               ; preds = %11
  br label %13

13:                                               ; preds = %12
  br label %14

14:                                               ; preds = %13
  br label %23

15:                                               ; preds = %2
  %16 = load ptr, ptr %3, align 8, !tbaa !40
  %17 = getelementptr inbounds nuw %struct.wolfSSL_RefWithMutex, ptr %16, i32 0, i32 1
  %18 = load i32, ptr %17, align 8, !tbaa !44
  %19 = add nsw i32 %18, 1
  store i32 %19, ptr %17, align 8, !tbaa !44
  %20 = load ptr, ptr %3, align 8, !tbaa !40
  %21 = getelementptr inbounds nuw %struct.wolfSSL_RefWithMutex, ptr %20, i32 0, i32 0
  %22 = call i32 @wc_UnLockMutex(ptr noundef %21)
  br label %23

23:                                               ; preds = %15, %14
  %24 = load i32, ptr %5, align 4, !tbaa !3
  %25 = load ptr, ptr %4, align 8, !tbaa !42
  store i32 %24, ptr %25, align 4, !tbaa !3
  call void @llvm.lifetime.end.p0(i64 4, ptr %5) #7
  ret void
}