; Function Attrs: nounwind uwtable
define void @wolfSSL_RefWithMutexInc(ptr noundef %0, ptr noundef writeonly captures(none) initializes((0, 4)) %1) local_unnamed_addr #2 {
  %3 = tail call i32 @pthread_mutex_lock(ptr noundef %0) #16
  %4 = icmp eq i32 %3, 0
  br i1 %4, label %5, label %10

5:                                                ; preds = %2
  %6 = getelementptr inbounds nuw i8, ptr %0, i64 40
  %7 = load i32, ptr %6, align 8, !tbaa !29
  %8 = add nsw i32 %7, 1
  store i32 %8, ptr %6, align 8, !tbaa !29
  %9 = tail call i32 @pthread_mutex_unlock(ptr noundef %0) #16
  br label %10

10:                                               ; preds = %2, %5
  %..i = phi i32 [ -106, %2 ], [ 0, %5 ]
  store i32 %..i, ptr %1, align 4, !tbaa !3
  ret void
}